; Function Attrs: mustprogress uwtable
define void @_ZN8proxygen9ExceptionC2ERKNSt7__cxx1112basic_stringIcSt11char_traitsIcESaIcEEE(ptr noundef nonnull align 8 dereferenceable(48) %this, ptr noundef nonnull align 8 dereferenceable(32) %msg) unnamed_addr #0 align 2 personality ptr @__gxx_personality_v0 {
entry:
  store ptr getelementptr inbounds ({ [5 x ptr] }, ptr @_ZTVN8proxygen9ExceptionE, i64 0, i32 0, i64 2), ptr %this, align 8
  %msg_ = getelementptr inbounds i8, ptr %this, i64 8
  invoke void @_ZNSt7__cxx1112basic_stringIcSt11char_traitsIcESaIcEEC1ERKS4_(ptr noundef nonnull align 8 dereferenceable(32) %msg_, ptr noundef nonnull align 8 dereferenceable(32) %msg)
          to label %invoke.cont unwind label %lpad

invoke.cont:                                      ; preds = %entry
  %code_ = getelementptr inbounds i8, ptr %this, i64 40
  store i32 0, ptr %code_, align 8
  %proxygenError_ = getelementptr inbounds i8, ptr %this, i64 44
  store i32 0, ptr %proxygenError_, align 4
  ret void

lpad:                                             ; preds = %entry
  %0 = landingpad { ptr, i32 }
          cleanup
  tail call void @_ZNSt9exceptionD2Ev(ptr noundef nonnull align 8 dereferenceable(8) %this) #8
  resume { ptr, i32 } %0
}